; Function Attrs: mustprogress uwtable
define dso_local noundef i32 @_ZN24cmCPackExternalGenerator37InstallProjectViaInstalledDirectoriesEbRKNSt7__cxx1112basic_stringIcSt11char_traitsIcESaIcEEEPKj(ptr noundef nonnull align 8 dereferenceable(368) %0, i1 noundef zeroext %1, ptr noundef nonnull align 8 dereferenceable(32) %2, ptr noundef %3) unnamed_addr #3 align 2 {
  %5 = tail call noundef zeroext i1 @_ZNK24cmCPackExternalGenerator14StagingEnabledEv(ptr noundef nonnull align 8 dereferenceable(368) %0)
  br i1 %5, label %6, label %8

6:                                                ; preds = %4
  %7 = tail call noundef i32 @_ZN16cmCPackGenerator37InstallProjectViaInstalledDirectoriesEbRKNSt7__cxx1112basic_stringIcSt11char_traitsIcESaIcEEEPKj(ptr noundef nonnull align 8 dereferenceable(360) %0, i1 noundef zeroext %1, ptr noundef nonnull align 8 dereferenceable(32) %2, ptr noundef %3)
  br label %8

8:                                                ; preds = %4, %6
  %.0 = phi i32 [ %7, %6 ], [ 1, %4 ]
  ret i32 %.0
}